target datalayout = "e-m:e-p270:32:32-p271:32:32-p272:64:64-i64:64-i128:128-f80:128-n8:16:32:64-S128"
target triple = "x86_64-pc-linux-gnu"

%struct.buf_mem_st = type { i64, ptr, i64, i64 }

@testpropq = internal global ptr null, align 8
@.str.296 = private unnamed_addr constant [96 x i8] c"ectx = OSSL_ENCODER_CTX_new_for_pkey(pkey, selection, output_type, output_structure, testpropq)\00", align 1
@.str.297 = private unnamed_addr constant [40 x i8] c"OSSL_ENCODER_CTX_get_num_encoders(ectx)\00", align 1
@.str.298 = private unnamed_addr constant [2 x i8] c"0\00", align 1
@.str.299 = private unnamed_addr constant [59 x i8] c"OSSL_ENCODER_CTX_set_passphrase(ectx, upass, strlen(pass))\00", align 1
@.str.300 = private unnamed_addr constant [49 x i8] c"OSSL_ENCODER_CTX_set_cipher(ectx, pcipher, NULL)\00", align 1
@.str.301 = private unnamed_addr constant [31 x i8] c"mem_ser = BIO_new(BIO_s_mem())\00", align 1
@.str.302 = private unnamed_addr constant [35 x i8] c"OSSL_ENCODER_to_bio(ectx, mem_ser)\00", align 1
@.str.303 = private unnamed_addr constant [39 x i8] c"BIO_get_mem_ptr(mem_ser, &mem_buf) > 0\00", align 1
@.str.304 = private unnamed_addr constant [25 x i8] c"*encoded = mem_buf->data\00", align 1
@.str.305 = private unnamed_addr constant [31 x i8] c"*encoded_len = mem_buf->length\00", align 1

; Function Attrs: nounwind uwtable
define internal i32 @encode_EVP_PKEY_prov(ptr noundef %0, i32 noundef %1, ptr noundef %2, ptr noundef %3, ptr noundef %4, i32 noundef %5, ptr noundef %6, ptr noundef %7, ptr noundef %8, ptr noundef %9) #0 {
  %11 = alloca ptr, align 8
  %12 = alloca i32, align 4
  %13 = alloca ptr, align 8
  %14 = alloca ptr, align 8
  %15 = alloca ptr, align 8
  %16 = alloca i32, align 4
  %17 = alloca ptr, align 8
  %18 = alloca ptr, align 8
  %19 = alloca ptr, align 8
  %20 = alloca ptr, align 8
  %21 = alloca ptr, align 8
  %22 = alloca ptr, align 8
  %23 = alloca ptr, align 8
  %24 = alloca ptr, align 8
  %25 = alloca ptr, align 8
  %26 = alloca i32, align 4
  store ptr %0, ptr %11, align 8, !tbaa !4
  store i32 %1, ptr %12, align 4, !tbaa !9
  store ptr %2, ptr %13, align 8, !tbaa !31
  store ptr %3, ptr %14, align 8, !tbaa !32
  store ptr %4, ptr %15, align 8, !tbaa !31
  store i32 %5, ptr %16, align 4, !tbaa !9
  store ptr %6, ptr %17, align 8, !tbaa !4
  store ptr %7, ptr %18, align 8, !tbaa !4
  store ptr %8, ptr %19, align 8, !tbaa !4
  store ptr %9, ptr %20, align 8, !tbaa !4
  call void @llvm.lifetime.start.p0(i64 8, ptr %21) #7
  %27 = load ptr, ptr %15, align 8, !tbaa !31
  store ptr %27, ptr %21, align 8, !tbaa !23
  call void @llvm.lifetime.start.p0(i64 8, ptr %22) #7
  store ptr null, ptr %22, align 8, !tbaa !34
  call void @llvm.lifetime.start.p0(i64 8, ptr %23) #7
  store ptr null, ptr %23, align 8, !tbaa !36
  call void @llvm.lifetime.start.p0(i64 8, ptr %24) #7
  store ptr null, ptr %24, align 8, !tbaa !38
  call void @llvm.lifetime.start.p0(i64 8, ptr %25) #7
  %28 = load ptr, ptr %19, align 8, !tbaa !4
  store ptr %28, ptr %25, align 8, !tbaa !4
  call void @llvm.lifetime.start.p0(i64 4, ptr %26) #7
  store i32 0, ptr %26, align 4, !tbaa !9
  %29 = load ptr, ptr %11, align 8, !tbaa !4
  %30 = load i32, ptr %12, align 4, !tbaa !9
  %31 = load ptr, ptr %21, align 8, !tbaa !23
  %32 = load i32, ptr %16, align 4, !tbaa !9
  %33 = load ptr, ptr %17, align 8, !tbaa !4
  %34 = load ptr, ptr %18, align 8, !tbaa !4
  %35 = load ptr, ptr @testpropq, align 8, !tbaa !4
  %36 = call ptr @OSSL_ENCODER_CTX_new_for_pkey(ptr noundef %31, i32 noundef %32, ptr noundef %33, ptr noundef %34, ptr noundef %35)
  store ptr %36, ptr %22, align 8, !tbaa !34
  %37 = call i32 @test_ptr(ptr noundef %29, i32 noundef %30, ptr noundef @.str.296, ptr noundef %36)
  %38 = icmp ne i32 %37, 0
  br i1 %38, label %39, label %120

39:                                               ; preds = %10
  %40 = load ptr, ptr %11, align 8, !tbaa !4
  %41 = load i32, ptr %12, align 4, !tbaa !9
  %42 = load ptr, ptr %22, align 8, !tbaa !34
  %43 = call i32 @OSSL_ENCODER_CTX_get_num_encoders(ptr noundef %42)
  %44 = call i32 @test_int_gt(ptr noundef %40, i32 noundef %41, ptr noundef @.str.297, ptr noundef @.str.298, i32 noundef %43, i32 noundef 0)
  %45 = icmp ne i32 %44, 0
  br i1 %45, label %46, label %120

46:                                               ; preds = %39
  %47 = load ptr, ptr %19, align 8, !tbaa !4
  %48 = icmp ne ptr %47, null
  br i1 %48, label %49, label %61

49:                                               ; preds = %46
  %50 = load ptr, ptr %11, align 8, !tbaa !4
  %51 = load i32, ptr %12, align 4, !tbaa !9
  %52 = load ptr, ptr %22, align 8, !tbaa !34
  %53 = load ptr, ptr %25, align 8, !tbaa !4
  %54 = load ptr, ptr %19, align 8, !tbaa !4
  %55 = call i64 @strlen(ptr noundef %54) #8
  %56 = call i32 @OSSL_ENCODER_CTX_set_passphrase(ptr noundef %52, ptr noundef %53, i64 noundef %55)
  %57 = icmp ne i32 %56, 0
  %58 = zext i1 %57 to i32
  %59 = call i32 @test_true(ptr noundef %50, i32 noundef %51, ptr noundef @.str.299, i32 noundef %58)
  %60 = icmp ne i32 %59, 0
  br i1 %60, label %61, label %120

61:                                               ; preds = %49, %46
  %62 = load ptr, ptr %20, align 8, !tbaa !4
  %63 = icmp ne ptr %62, null
  br i1 %63, label %64, label %74

64:                                               ; preds = %61
  %65 = load ptr, ptr %11, align 8, !tbaa !4
  %66 = load i32, ptr %12, align 4, !tbaa !9
  %67 = load ptr, ptr %22, align 8, !tbaa !34
  %68 = load ptr, ptr %20, align 8, !tbaa !4
  %69 = call i32 @OSSL_ENCODER_CTX_set_cipher(ptr noundef %67, ptr noundef %68, ptr noundef null)
  %70 = icmp ne i32 %69, 0
  %71 = zext i1 %70 to i32
  %72 = call i32 @test_true(ptr noundef %65, i32 noundef %66, ptr noundef @.str.300, i32 noundef %71)
  %73 = icmp ne i32 %72, 0
  br i1 %73, label %74, label %120

74:                                               ; preds = %64, %61
  %75 = load ptr, ptr %11, align 8, !tbaa !4
  %76 = load i32, ptr %12, align 4, !tbaa !9
  %77 = call ptr @BIO_s_mem()
  %78 = call ptr @BIO_new(ptr noundef %77)
  store ptr %78, ptr %23, align 8, !tbaa !36
  %79 = call i32 @test_ptr(ptr noundef %75, i32 noundef %76, ptr noundef @.str.301, ptr noundef %78)
  %80 = icmp ne i32 %79, 0
  br i1 %80, label %81, label %120

81:                                               ; preds = %74
  %82 = load ptr, ptr %11, align 8, !tbaa !4
  %83 = load i32, ptr %12, align 4, !tbaa !9
  %84 = load ptr, ptr %22, align 8, !tbaa !34
  %85 = load ptr, ptr %23, align 8, !tbaa !36
  %86 = call i32 @OSSL_ENCODER_to_bio(ptr noundef %84, ptr noundef %85)
  %87 = icmp ne i32 %86, 0
  %88 = zext i1 %87 to i32
  %89 = call i32 @test_true(ptr noundef %82, i32 noundef %83, ptr noundef @.str.302, i32 noundef %88)
  %90 = icmp ne i32 %89, 0
  br i1 %90, label %91, label %120

91:                                               ; preds = %81
  %92 = load ptr, ptr %11, align 8, !tbaa !4
  %93 = load i32, ptr %12, align 4, !tbaa !9
  %94 = load ptr, ptr %23, align 8, !tbaa !36
  %95 = call i64 @BIO_ctrl(ptr noundef %94, i32 noundef 115, i64 noundef 0, ptr noundef %24)
  %96 = icmp sgt i64 %95, 0
  %97 = zext i1 %96 to i32
  %98 = icmp ne i32 %97, 0
  %99 = zext i1 %98 to i32
  %100 = call i32 @test_true(ptr noundef %92, i32 noundef %93, ptr noundef @.str.303, i32 noundef %99)
  %101 = icmp ne i32 %100, 0
  br i1 %101, label %102, label %120

102:                                              ; preds = %91
  %103 = load ptr, ptr %11, align 8, !tbaa !4
  %104 = load i32, ptr %12, align 4, !tbaa !9
  %105 = load ptr, ptr %24, align 8, !tbaa !38
  %106 = getelementptr inbounds nuw %struct.buf_mem_st, ptr %105, i32 0, i32 1
  %107 = load ptr, ptr %106, align 8, !tbaa !40
  %108 = load ptr, ptr %13, align 8, !tbaa !31
  store ptr %107, ptr %108, align 8, !tbaa !31
  %109 = call i32 @test_ptr(ptr noundef %103, i32 noundef %104, ptr noundef @.str.304, ptr noundef %107)
  %110 = icmp ne i32 %109, 0
  br i1 %110, label %111, label %120

111:                                              ; preds = %102
  %112 = load ptr, ptr %11, align 8, !tbaa !4
  %113 = load i32, ptr %12, align 4, !tbaa !9
  %114 = load ptr, ptr %24, align 8, !tbaa !38
  %115 = getelementptr inbounds nuw %struct.buf_mem_st, ptr %114, i32 0, i32 0
  %116 = load i64, ptr %115, align 8, !tbaa !42
  %117 = load ptr, ptr %14, align 8, !tbaa !32
  store i64 %116, ptr %117, align 8, !tbaa !27
  %118 = call i32 @test_long_gt(ptr noundef %112, i32 noundef %113, ptr noundef @.str.305, ptr noundef @.str.298, i64 noundef %116, i64 noundef 0)
  %119 = icmp ne i32 %118, 0
  br i1 %119, label %121, label %120

120:                                              ; preds = %111, %102, %91, %81, %74, %64, %49, %39, %10
  br label %126

121:                                              ; preds = %111
  %122 = load ptr, ptr %24, align 8, !tbaa !38
  %123 = getelementptr inbounds nuw %struct.buf_mem_st, ptr %122, i32 0, i32 1
  store ptr null, ptr %123, align 8, !tbaa !40
  %124 = load ptr, ptr %24, align 8, !tbaa !38
  %125 = getelementptr inbounds nuw %struct.buf_mem_st, ptr %124, i32 0, i32 0
  store i64 0, ptr %125, align 8, !tbaa !42
  store i32 1, ptr %26, align 4, !tbaa !9
  br label %126

126:                                              ; preds = %121, %120
  %127 = load ptr, ptr %23, align 8, !tbaa !36
  %128 = call i32 @BIO_free(ptr noundef %127)
  %129 = load ptr, ptr %22, align 8, !tbaa !34
  call void @OSSL_ENCODER_CTX_free(ptr noundef %129)
  %130 = load i32, ptr %26, align 4, !tbaa !9
  call void @llvm.lifetime.end.p0(i64 4, ptr %26) #7
  call void @llvm.lifetime.end.p0(i64 8, ptr %25) #7
  call void @llvm.lifetime.end.p0(i64 8, ptr %24) #7
  call void @llvm.lifetime.end.p0(i64 8, ptr %23) #7
  call void @llvm.lifetime.end.p0(i64 8, ptr %22) #7
  call void @llvm.lifetime.end.p0(i64 8, ptr %21) #7
  ret i32 %130
}