; Function Attrs: nounwind uwtable
define internal range(i32 0, 2) i32 @encode_EVP_PKEY_prov(ptr noundef %0, i32 noundef %1, ptr noundef writeonly captures(none) %2, ptr noundef writeonly captures(none) %3, ptr noundef %4, i32 noundef %5, ptr noundef %6, ptr noundef %7, ptr noundef %8, ptr noundef %9) #1 {
  %11 = alloca ptr, align 8
  call void @llvm.lifetime.start.p0(i64 8, ptr nonnull %11) #8
  store ptr null, ptr %11, align 8, !tbaa !29
  %12 = tail call ptr @OSSL_ENCODER_CTX_new_for_pkey(ptr noundef %4, i32 noundef %5, ptr noundef %6, ptr noundef %7, ptr noundef null) #8
  %13 = tail call i32 @test_ptr(ptr noundef %0, i32 noundef %1, ptr noundef nonnull @.str.296, ptr noundef %12) #8
  %.not = icmp eq i32 %13, 0
  br i1 %.not, label %55, label %14

14:                                               ; preds = %10
  %15 = tail call i32 @OSSL_ENCODER_CTX_get_num_encoders(ptr noundef %12) #8
  %16 = tail call i32 @test_int_gt(ptr noundef %0, i32 noundef %1, ptr noundef nonnull @.str.297, ptr noundef nonnull @.str.298, i32 noundef %15, i32 noundef 0) #8
  %.not42 = icmp eq i32 %16, 0
  br i1 %.not42, label %55, label %17

17:                                               ; preds = %14
  %.not43 = icmp eq ptr %8, null
  br i1 %.not43, label %24, label %18

18:                                               ; preds = %17
  %19 = tail call i64 @strlen(ptr noundef nonnull dereferenceable(1) %8) #9
  %20 = tail call i32 @OSSL_ENCODER_CTX_set_passphrase(ptr noundef %12, ptr noundef nonnull %8, i64 noundef %19) #8
  %21 = icmp ne i32 %20, 0
  %22 = zext i1 %21 to i32
  %23 = tail call i32 @test_true(ptr noundef %0, i32 noundef %1, ptr noundef nonnull @.str.299, i32 noundef %22) #8
  %.not44 = icmp eq i32 %23, 0
  br i1 %.not44, label %55, label %24

24:                                               ; preds = %18, %17
  %.not45 = icmp eq ptr %9, null
  br i1 %.not45, label %30, label %25

25:                                               ; preds = %24
  %26 = tail call i32 @OSSL_ENCODER_CTX_set_cipher(ptr noundef %12, ptr noundef nonnull %9, ptr noundef null) #8
  %27 = icmp ne i32 %26, 0
  %28 = zext i1 %27 to i32
  %29 = tail call i32 @test_true(ptr noundef %0, i32 noundef %1, ptr noundef nonnull @.str.300, i32 noundef %28) #8
  %.not46 = icmp eq i32 %29, 0
  br i1 %.not46, label %55, label %30

30:                                               ; preds = %25, %24
  %31 = tail call ptr @BIO_s_mem() #8
  %32 = tail call ptr @BIO_new(ptr noundef %31) #8
  %33 = tail call i32 @test_ptr(ptr noundef %0, i32 noundef %1, ptr noundef nonnull @.str.301, ptr noundef %32) #8
  %.not47 = icmp eq i32 %33, 0
  br i1 %.not47, label %55, label %34

34:                                               ; preds = %30
  %35 = tail call i32 @OSSL_ENCODER_to_bio(ptr noundef %12, ptr noundef %32) #8
  %36 = icmp ne i32 %35, 0
  %37 = zext i1 %36 to i32
  %38 = tail call i32 @test_true(ptr noundef %0, i32 noundef %1, ptr noundef nonnull @.str.302, i32 noundef %37) #8
  %.not48 = icmp eq i32 %38, 0
  br i1 %.not48, label %55, label %39

39:                                               ; preds = %34
  %40 = call i64 @BIO_ctrl(ptr noundef %32, i32 noundef 115, i64 noundef 0, ptr noundef nonnull %11) #8
  %41 = icmp sgt i64 %40, 0
  %42 = zext i1 %41 to i32
  %43 = call i32 @test_true(ptr noundef %0, i32 noundef %1, ptr noundef nonnull @.str.303, i32 noundef %42) #8
  %.not49 = icmp eq i32 %43, 0
  br i1 %.not49, label %55, label %44

44:                                               ; preds = %39
  %45 = load ptr, ptr %11, align 8, !tbaa !29
  %46 = getelementptr inbounds nuw i8, ptr %45, i64 8
  %47 = load ptr, ptr %46, align 8, !tbaa !31
  store ptr %47, ptr %2, align 8, !tbaa !23
  %48 = call i32 @test_ptr(ptr noundef %0, i32 noundef %1, ptr noundef nonnull @.str.304, ptr noundef %47) #8
  %.not50 = icmp eq i32 %48, 0
  br i1 %.not50, label %55, label %49

49:                                               ; preds = %44
  %50 = load ptr, ptr %11, align 8, !tbaa !29
  %51 = load i64, ptr %50, align 8, !tbaa !34
  store i64 %51, ptr %3, align 8, !tbaa !24
  %52 = call i32 @test_long_gt(ptr noundef %0, i32 noundef %1, ptr noundef nonnull @.str.305, ptr noundef nonnull @.str.298, i64 noundef %51, i64 noundef 0) #8
  %.not51 = icmp eq i32 %52, 0
  br i1 %.not51, label %55, label %53

53:                                               ; preds = %49
  %54 = load ptr, ptr %11, align 8, !tbaa !29
  call void @llvm.memset.p0.i64(ptr noundef nonnull align 8 dereferenceable(16) %54, i8 0, i64 16, i1 false)
  br label %55

55:                                               ; preds = %10, %14, %18, %25, %30, %34, %39, %44, %49, %53
  %.039 = phi ptr [ %32, %53 ], [ %32, %49 ], [ %32, %44 ], [ %32, %39 ], [ %32, %34 ], [ %32, %30 ], [ null, %25 ], [ null, %18 ], [ null, %14 ], [ null, %10 ]
  %.0 = phi i32 [ 1, %53 ], [ 0, %49 ], [ 0, %44 ], [ 0, %39 ], [ 0, %34 ], [ 0, %30 ], [ 0, %25 ], [ 0, %18 ], [ 0, %14 ], [ 0, %10 ]
  %56 = call i32 @BIO_free(ptr noundef %.039) #8
  call void @OSSL_ENCODER_CTX_free(ptr noundef %12) #8
  call void @llvm.lifetime.end.p0(i64 8, ptr nonnull %11) #8
  ret i32 %.0
}